target datalayout = "e-m:e-p270:32:32-p271:32:32-p272:64:64-i64:64-i128:128-f80:128-n8:16:32:64-S128"
target triple = "x86_64-pc-linux-gnu"

%"class.llvm::NoopStatistic" = type { i8 }
%"class.llvm::MCAssembler" = type <{ ptr, %"class.std::unique_ptr", %"class.std::unique_ptr.2", %"class.std::unique_ptr.10", i8, i8, [6 x i8], %"class.llvm::SmallVector", %"class.llvm::SmallVector.18", %"struct.llvm::MCDwarfLineTableParams", [5 x i8], %"class.llvm::SmallPtrSet", i32, [4 x i8] }>
%"class.std::unique_ptr" = type { %"struct.std::__uniq_ptr_data" }
%"struct.std::__uniq_ptr_data" = type { %"class.std::__uniq_ptr_impl" }
%"class.std::__uniq_ptr_impl" = type { %"class.std::tuple" }
%"class.std::tuple" = type { %"struct.std::_Tuple_impl" }
%"struct.std::_Tuple_impl" = type { %"struct.std::_Head_base.1" }
%"struct.std::_Head_base.1" = type { ptr }
%"class.std::unique_ptr.2" = type { %"struct.std::__uniq_ptr_data.3" }
%"struct.std::__uniq_ptr_data.3" = type { %"class.std::__uniq_ptr_impl.4" }
%"class.std::__uniq_ptr_impl.4" = type { %"class.std::tuple.5" }
%"class.std::tuple.5" = type { %"struct.std::_Tuple_impl.6" }
%"struct.std::_Tuple_impl.6" = type { %"struct.std::_Head_base.9" }
%"struct.std::_Head_base.9" = type { ptr }
%"class.std::unique_ptr.10" = type { %"struct.std::__uniq_ptr_data.11" }
%"struct.std::__uniq_ptr_data.11" = type { %"class.std::__uniq_ptr_impl.12" }
%"class.std::__uniq_ptr_impl.12" = type { %"class.std::tuple.13" }
%"class.std::tuple.13" = type { %"struct.std::_Tuple_impl.14" }
%"struct.std::_Tuple_impl.14" = type { %"struct.std::_Head_base.17" }
%"struct.std::_Head_base.17" = type { ptr }
%"class.llvm::SmallVector" = type { %"class.llvm::SmallVectorImpl" }
%"class.llvm::SmallVectorImpl" = type { %"class.llvm::SmallVectorTemplateBase" }
%"class.llvm::SmallVectorTemplateBase" = type { %"class.llvm::SmallVectorTemplateCommon" }
%"class.llvm::SmallVectorTemplateCommon" = type { %"class.llvm::SmallVectorBase" }
%"class.llvm::SmallVectorBase" = type { ptr, i32, i32 }
%"class.llvm::SmallVector.18" = type { %"class.llvm::SmallVectorImpl.19" }
%"class.llvm::SmallVectorImpl.19" = type { %"class.llvm::SmallVectorTemplateBase.20" }
%"class.llvm::SmallVectorTemplateBase.20" = type { %"class.llvm::SmallVectorTemplateCommon.21" }
%"class.llvm::SmallVectorTemplateCommon.21" = type { %"class.llvm::SmallVectorBase" }
%"struct.llvm::MCDwarfLineTableParams" = type { i8, i8, i8 }
%"class.llvm::SmallPtrSet" = type { %"class.llvm::SmallPtrSetImpl.base", [32 x ptr] }
%"class.llvm::SmallPtrSetImpl.base" = type { %"class.llvm::SmallPtrSetImplBase.base" }
%"class.llvm::SmallPtrSetImplBase.base" = type <{ ptr, ptr, i32, i32, i32 }>
%"class.llvm::MCSection" = type <{ ptr, ptr, ptr, ptr, %"struct.llvm::Align", [3 x i8], i32, i32, i32, i8, [7 x i8], %"class.llvm::MCDummyFragment", %"class.llvm::SmallVector.155", %"class.llvm::StringRef", i32, [4 x i8] }>
%"struct.llvm::Align" = type { i8 }
%"class.llvm::MCDummyFragment" = type { %"class.llvm::MCFragment.base", [2 x i8] }
%"class.llvm::MCFragment.base" = type <{ ptr, ptr, i64, i32, i8, i8 }>
%"class.llvm::SmallVector.155" = type { %"class.llvm::SmallVectorImpl.156", %"struct.llvm::SmallVectorStorage.159" }
%"class.llvm::SmallVectorImpl.156" = type { %"class.llvm::SmallVectorTemplateBase.157" }
%"class.llvm::SmallVectorTemplateBase.157" = type { %"class.llvm::SmallVectorTemplateCommon.158" }
%"class.llvm::SmallVectorTemplateCommon.158" = type { %"class.llvm::SmallVectorBase" }
%"struct.llvm::SmallVectorStorage.159" = type { [24 x i8] }
%"class.llvm::StringRef" = type { ptr, i64 }
%"class.llvm::MCFragment" = type <{ ptr, ptr, i64, i32, i8, i8, [2 x i8] }>
%"struct.llvm::MCSection::iterator" = type { ptr }
%"struct.llvm::MCSection::FragList" = type { ptr, ptr }
%"struct.llvm::pointee_iterator" = type { %"class.llvm::iterator_adaptor_base" }
%"class.llvm::iterator_adaptor_base" = type { ptr }

@_ZN12_GLOBAL__N_15stats15RelaxationStepsE = internal global %"class.llvm::NoopStatistic" zeroinitializer, align 1

; Function Attrs: mustprogress nounwind uwtable
define linkonce_odr hidden void @_ZN4llvm21iterator_adaptor_baseINS_16pointee_iteratorIPKPNS_9MCSectionES2_EES5_St26random_access_iterator_tagS2_lS3_RS2_EC2ES5_(ptr noundef nonnull align 8 dereferenceable(8) %0, ptr noundef %1) unnamed_addr #1 comdat align 2 {
  %3 = alloca ptr, align 8
  %4 = alloca ptr, align 8
  store ptr %0, ptr %3, align 8
  store ptr %1, ptr %4, align 8
  %5 = load ptr, ptr %3, align 8
  %6 = getelementptr inbounds nuw %"class.llvm::iterator_adaptor_base", ptr %5, i32 0, i32 0
  %7 = load ptr, ptr %4, align 8
  store ptr %7, ptr %6, align 8
  ret void
}

; Function Attrs: mustprogress nounwind uwtable
define linkonce_odr hidden void @_ZN4llvm9MCSection8iteratorC2Ev(ptr noundef nonnull align 8 dereferenceable(8) %0) unnamed_addr #1 comdat align 2 {
  %2 = alloca ptr, align 8
  store ptr %0, ptr %2, align 8
  %3 = load ptr, ptr %2, align 8
  %4 = getelementptr inbounds nuw %"struct.llvm::MCSection::iterator", ptr %3, i32 0, i32 0
  store ptr null, ptr %4, align 8
  ret void
}

; Function Attrs: mustprogress nounwind uwtable
define linkonce_odr hidden void @_ZN4llvm9MCSection8iteratorC2EPNS_10MCFragmentE(ptr noundef nonnull align 8 dereferenceable(8) %0, ptr noundef %1) unnamed_addr #1 comdat align 2 {
  %3 = alloca ptr, align 8
  %4 = alloca ptr, align 8
  store ptr %0, ptr %3, align 8
  store ptr %1, ptr %4, align 8
  %5 = load ptr, ptr %3, align 8
  %6 = getelementptr inbounds nuw %"struct.llvm::MCSection::iterator", ptr %5, i32 0, i32 0
  %7 = load ptr, ptr %4, align 8
  store ptr %7, ptr %6, align 8
  ret void
}

; Function Attrs: mustprogress nounwind uwtable
define linkonce_odr hidden noundef zeroext i1 @_ZN4llvmeqERKNS_21iterator_adaptor_baseINS_16pointee_iteratorIPKPNS_9MCSectionES2_EES5_St26random_access_iterator_tagS2_lS3_RS2_EESB_(ptr noundef nonnull align 8 dereferenceable(8) %0, ptr noundef nonnull align 8 dereferenceable(8) %1) #1 comdat {
  %3 = alloca ptr, align 8
  %4 = alloca ptr, align 8
  store ptr %0, ptr %3, align 8
  store ptr %1, ptr %4, align 8
  %5 = load ptr, ptr %3, align 8
  %6 = getelementptr inbounds nuw %"class.llvm::iterator_adaptor_base", ptr %5, i32 0, i32 0
  %7 = load ptr, ptr %6, align 8
  %8 = load ptr, ptr %4, align 8
  %9 = getelementptr inbounds nuw %"class.llvm::iterator_adaptor_base", ptr %8, i32 0, i32 0
  %10 = load ptr, ptr %9, align 8
  %11 = icmp eq ptr %7, %10
  ret i1 %11
}

; Function Attrs: mustprogress nounwind uwtable
define linkonce_odr hidden noundef ptr @_ZNK4llvm25SmallVectorTemplateCommonIPNS_9MCSectionEvE3endEv(ptr noundef nonnull align 8 dereferenceable(16) %0) #1 comdat align 2 {
  %2 = alloca ptr, align 8
  store ptr %0, ptr %2, align 8
  %3 = load ptr, ptr %2, align 8
  %4 = call noundef ptr @_ZNK4llvm25SmallVectorTemplateCommonIPNS_9MCSectionEvE5beginEv(ptr noundef nonnull align 8 dereferenceable(16) %3)
  %5 = call noundef i64 @_ZNK4llvm15SmallVectorBaseIjE4sizeEv(ptr noundef nonnull align 8 dereferenceable(16) %3)
  %6 = getelementptr inbounds ptr, ptr %4, i64 %5
  ret ptr %6
}

; Function Attrs: mustprogress nounwind uwtable
define linkonce_odr hidden void @_ZN4llvm16pointee_iteratorIPKPNS_9MCSectionES1_EC2IS4_EEOT_(ptr noundef nonnull align 8 dereferenceable(8) %0, ptr noundef nonnull align 8 dereferenceable(8) %1) unnamed_addr #1 comdat align 2 {
  %3 = alloca ptr, align 8
  %4 = alloca ptr, align 8
  store ptr %0, ptr %3, align 8
  store ptr %1, ptr %4, align 8
  %5 = load ptr, ptr %3, align 8
  %6 = load ptr, ptr %4, align 8
  %7 = load ptr, ptr %6, align 8
  call void @_ZN4llvm21iterator_adaptor_baseINS_16pointee_iteratorIPKPNS_9MCSectionES2_EES5_St26random_access_iterator_tagS2_lS3_RS2_EC2ES5_(ptr noundef nonnull align 8 dereferenceable(8) %5, ptr noundef %7)
  ret void
}

; Function Attrs: mustprogress nounwind uwtable
define linkonce_odr hidden noundef ptr @_ZNK4llvm25SmallVectorTemplateCommonIPNS_9MCSectionEvE5beginEv(ptr noundef nonnull align 8 dereferenceable(16) %0) #1 comdat align 2 {
  %2 = alloca ptr, align 8
  store ptr %0, ptr %2, align 8
  %3 = load ptr, ptr %2, align 8
  %4 = getelementptr inbounds nuw %"class.llvm::SmallVectorBase", ptr %3, i32 0, i32 0
  %5 = load ptr, ptr %4, align 8
  ret ptr %5
}

; Function Attrs: mustprogress nounwind uwtable
define linkonce_odr hidden noundef nonnull align 8 dereferenceable(8) ptr @_ZN4llvm21iterator_adaptor_baseINS_16pointee_iteratorIPKPNS_9MCSectionES2_EES5_St26random_access_iterator_tagS2_lS3_RS2_EppEv(ptr noundef nonnull align 8 dereferenceable(8) %0) #1 comdat align 2 {
  %2 = alloca ptr, align 8
  store ptr %0, ptr %2, align 8
  %3 = load ptr, ptr %2, align 8
  %4 = getelementptr inbounds nuw %"class.llvm::iterator_adaptor_base", ptr %3, i32 0, i32 0
  %5 = load ptr, ptr %4, align 8
  %6 = getelementptr inbounds ptr, ptr %5, i32 1
  store ptr %6, ptr %4, align 8
  ret ptr %3
}

; Function Attrs: mustprogress nounwind uwtable
define linkonce_odr hidden noundef nonnull align 8 dereferenceable(8) ptr @_ZN4llvm9MCSection8iteratorppEv(ptr noundef nonnull align 8 dereferenceable(8) %0) #1 comdat align 2 {
  %2 = alloca ptr, align 8
  store ptr %0, ptr %2, align 8
  %3 = load ptr, ptr %2, align 8
  %4 = getelementptr inbounds nuw %"struct.llvm::MCSection::iterator", ptr %3, i32 0, i32 0
  %5 = load ptr, ptr %4, align 8
  %6 = getelementptr inbounds nuw %"class.llvm::MCFragment", ptr %5, i32 0, i32 0
  %7 = load ptr, ptr %6, align 8
  %8 = getelementptr inbounds nuw %"struct.llvm::MCSection::iterator", ptr %3, i32 0, i32 0
  store ptr %7, ptr %8, align 8
  ret ptr %3
}

; Function Attrs: mustprogress nounwind uwtable
define linkonce_odr hidden noundef nonnull align 8 dereferenceable(30) ptr @_ZNK4llvm9MCSection8iteratordeEv(ptr noundef nonnull align 8 dereferenceable(8) %0) #1 comdat align 2 {
  %2 = alloca ptr, align 8
  store ptr %0, ptr %2, align 8
  %3 = load ptr, ptr %2, align 8
  %4 = getelementptr inbounds nuw %"struct.llvm::MCSection::iterator", ptr %3, i32 0, i32 0
  %5 = load ptr, ptr %4, align 8
  ret ptr %5
}

; Function Attrs: mustprogress nounwind uwtable
define linkonce_odr hidden noundef zeroext i1 @_ZNK4llvm9MCSection8iteratorneERKS1_(ptr noundef nonnull align 8 dereferenceable(8) %0, ptr noundef nonnull align 8 dereferenceable(8) %1) #1 comdat align 2 {
  %3 = alloca ptr, align 8
  %4 = alloca ptr, align 8
  store ptr %0, ptr %3, align 8
  store ptr %1, ptr %4, align 8
  %5 = load ptr, ptr %3, align 8
  %6 = getelementptr inbounds nuw %"struct.llvm::MCSection::iterator", ptr %5, i32 0, i32 0
  %7 = load ptr, ptr %6, align 8
  %8 = load ptr, ptr %4, align 8
  %9 = getelementptr inbounds nuw %"struct.llvm::MCSection::iterator", ptr %8, i32 0, i32 0
  %10 = load ptr, ptr %9, align 8
  %11 = icmp ne ptr %7, %10
  ret i1 %11
}

; Function Attrs: mustprogress nounwind uwtable
define linkonce_odr hidden ptr @_ZNK4llvm9MCSection3endEv(ptr noundef nonnull align 8 dereferenceable(148) %0) #1 comdat align 2 {
  %2 = alloca %"struct.llvm::MCSection::iterator", align 8
  %3 = alloca ptr, align 8
  store ptr %0, ptr %3, align 8
  call void @llvm.memset.p0.i64(ptr align 8 %2, i8 0, i64 8, i1 false)
  call void @_ZN4llvm9MCSection8iteratorC2Ev(ptr noundef nonnull align 8 dereferenceable(8) %2) #8
  %4 = getelementptr inbounds nuw %"struct.llvm::MCSection::iterator", ptr %2, i32 0, i32 0
  %5 = load ptr, ptr %4, align 8
  ret ptr %5
}

; Function Attrs: mustprogress nounwind uwtable
define linkonce_odr hidden ptr @_ZNK4llvm9MCSection5beginEv(ptr noundef nonnull align 8 dereferenceable(148) %0) #1 comdat align 2 {
  %2 = alloca %"struct.llvm::MCSection::iterator", align 8
  %3 = alloca ptr, align 8
  store ptr %0, ptr %3, align 8
  %4 = load ptr, ptr %3, align 8
  %5 = getelementptr inbounds nuw %"class.llvm::MCSection", ptr %4, i32 0, i32 1
  %6 = load ptr, ptr %5, align 8
  %7 = getelementptr inbounds nuw %"struct.llvm::MCSection::FragList", ptr %6, i32 0, i32 0
  %8 = load ptr, ptr %7, align 8
  call void @_ZN4llvm9MCSection8iteratorC2EPNS_10MCFragmentE(ptr noundef nonnull align 8 dereferenceable(8) %2, ptr noundef %8)
  %9 = getelementptr inbounds nuw %"struct.llvm::MCSection::iterator", ptr %2, i32 0, i32 0
  %10 = load ptr, ptr %9, align 8
  ret ptr %10
}

; Function Attrs: mustprogress nounwind uwtable
define linkonce_odr hidden noundef nonnull align 8 dereferenceable(148) ptr @_ZNK4llvm16pointee_iteratorIPKPNS_9MCSectionES1_EdeEv(ptr noundef nonnull align 8 dereferenceable(8) %0) #1 comdat align 2 {
  %2 = alloca ptr, align 8
  store ptr %0, ptr %2, align 8
  %3 = load ptr, ptr %2, align 8
  %4 = getelementptr inbounds nuw %"class.llvm::iterator_adaptor_base", ptr %3, i32 0, i32 0
  %5 = load ptr, ptr %4, align 8
  %6 = load ptr, ptr %5, align 8
  ret ptr %6
}

; Function Attrs: mustprogress nounwind uwtable
define linkonce_odr hidden noundef zeroext i1 @_ZNK4llvm20iterator_facade_baseINS_16pointee_iteratorIPKPNS_9MCSectionES2_EESt26random_access_iterator_tagS2_lS3_RS2_EneERKS6_(ptr noundef nonnull align 1 dereferenceable(1) %0, ptr noundef nonnull align 8 dereferenceable(8) %1) #1 comdat align 2 {
  %3 = alloca ptr, align 8
  %4 = alloca ptr, align 8
  store ptr %0, ptr %3, align 8
  store ptr %1, ptr %4, align 8
  %5 = load ptr, ptr %3, align 8
  %6 = load ptr, ptr %4, align 8
  %7 = call noundef zeroext i1 @_ZN4llvmeqERKNS_21iterator_adaptor_baseINS_16pointee_iteratorIPKPNS_9MCSectionES2_EES5_St26random_access_iterator_tagS2_lS3_RS2_EESB_(ptr noundef nonnull align 8 dereferenceable(8) %5, ptr noundef nonnull align 8 dereferenceable(8) %6)
  %8 = xor i1 %7, true
  ret i1 %8
}

; Function Attrs: mustprogress nounwind uwtable
define linkonce_odr hidden ptr @_ZNK4llvm11MCAssembler3endEv(ptr noundef nonnull align 8 dereferenceable(372) %0) #1 comdat align 2 {
  %2 = alloca %"struct.llvm::pointee_iterator", align 8
  %3 = alloca ptr, align 8
  %4 = alloca ptr, align 8
  store ptr %0, ptr %3, align 8
  %5 = load ptr, ptr %3, align 8
  %6 = getelementptr inbounds nuw %"class.llvm::MCAssembler", ptr %5, i32 0, i32 7
  %7 = call noundef ptr @_ZNK4llvm25SmallVectorTemplateCommonIPNS_9MCSectionEvE3endEv(ptr noundef nonnull align 8 dereferenceable(16) %6)
  store ptr %7, ptr %4, align 8
  call void @_ZN4llvm16pointee_iteratorIPKPNS_9MCSectionES1_EC2IS4_EEOT_(ptr noundef nonnull align 8 dereferenceable(8) %2, ptr noundef nonnull align 8 dereferenceable(8) %4)
  %8 = getelementptr inbounds nuw %"struct.llvm::pointee_iterator", ptr %2, i32 0, i32 0
  %9 = getelementptr inbounds nuw %"class.llvm::iterator_adaptor_base", ptr %8, i32 0, i32 0
  %10 = load ptr, ptr %9, align 8
  ret ptr %10
}

; Function Attrs: mustprogress nounwind uwtable
define linkonce_odr hidden ptr @_ZNK4llvm11MCAssembler5beginEv(ptr noundef nonnull align 8 dereferenceable(372) %0) #1 comdat align 2 {
  %2 = alloca %"struct.llvm::pointee_iterator", align 8
  %3 = alloca ptr, align 8
  %4 = alloca ptr, align 8
  store ptr %0, ptr %3, align 8
  %5 = load ptr, ptr %3, align 8
  %6 = getelementptr inbounds nuw %"class.llvm::MCAssembler", ptr %5, i32 0, i32 7
  %7 = call noundef ptr @_ZNK4llvm25SmallVectorTemplateCommonIPNS_9MCSectionEvE5beginEv(ptr noundef nonnull align 8 dereferenceable(16) %6)
  store ptr %7, ptr %4, align 8
  call void @_ZN4llvm16pointee_iteratorIPKPNS_9MCSectionES1_EC2IS4_EEOT_(ptr noundef nonnull align 8 dereferenceable(8) %2, ptr noundef nonnull align 8 dereferenceable(8) %4)
  %8 = getelementptr inbounds nuw %"struct.llvm::pointee_iterator", ptr %2, i32 0, i32 0
  %9 = getelementptr inbounds nuw %"class.llvm::iterator_adaptor_base", ptr %8, i32 0, i32 0
  %10 = load ptr, ptr %9, align 8
  ret ptr %10
}

; Function Attrs: mustprogress nounwind uwtable
define linkonce_odr hidden noundef nonnull align 1 dereferenceable(1) ptr @_ZN4llvm13NoopStatisticppEv(ptr noundef nonnull align 1 dereferenceable(1) %0) #1 comdat align 2 {
  %2 = alloca ptr, align 8
  store ptr %0, ptr %2, align 8
  %3 = load ptr, ptr %2, align 8
  ret ptr %3
}

; Function Attrs: mustprogress nounwind uwtable
define dso_local noundef zeroext i1 @_ZN4llvm11MCAssembler10layoutOnceEv(ptr noundef nonnull align 8 dereferenceable(372) %0) #1 align 2 {
  %2 = alloca ptr, align 8
  %3 = alloca i8, align 1
  %4 = alloca ptr, align 8
  %5 = alloca %"struct.llvm::pointee_iterator", align 8
  %6 = alloca %"struct.llvm::pointee_iterator", align 8
  %7 = alloca ptr, align 8
  %8 = alloca ptr, align 8
  %9 = alloca %"struct.llvm::MCSection::iterator", align 8
  %10 = alloca %"struct.llvm::MCSection::iterator", align 8
  %11 = alloca ptr, align 8
  store ptr %0, ptr %2, align 8
  %12 = load ptr, ptr %2, align 8
  %13 = call noundef nonnull align 1 dereferenceable(1) ptr @_ZN4llvm13NoopStatisticppEv(ptr noundef nonnull align 1 dereferenceable(1) @_ZN12_GLOBAL__N_15stats15RelaxationStepsE)
  store i8 0, ptr %3, align 1
  store ptr %12, ptr %4, align 8
  %14 = load ptr, ptr %4, align 8
  %15 = call ptr @_ZNK4llvm11MCAssembler5beginEv(ptr noundef nonnull align 8 dereferenceable(372) %14)
  %16 = getelementptr inbounds nuw %"struct.llvm::pointee_iterator", ptr %5, i32 0, i32 0
  %17 = getelementptr inbounds nuw %"class.llvm::iterator_adaptor_base", ptr %16, i32 0, i32 0
  store ptr %15, ptr %17, align 8
  %18 = load ptr, ptr %4, align 8
  %19 = call ptr @_ZNK4llvm11MCAssembler3endEv(ptr noundef nonnull align 8 dereferenceable(372) %18)
  %20 = getelementptr inbounds nuw %"struct.llvm::pointee_iterator", ptr %6, i32 0, i32 0
  %21 = getelementptr inbounds nuw %"class.llvm::iterator_adaptor_base", ptr %20, i32 0, i32 0
  store ptr %19, ptr %21, align 8
  br label %22

22:                                               ; preds = %44, %1
  %23 = call noundef zeroext i1 @_ZNK4llvm20iterator_facade_baseINS_16pointee_iteratorIPKPNS_9MCSectionES2_EESt26random_access_iterator_tagS2_lS3_RS2_EneERKS6_(ptr noundef nonnull align 1 dereferenceable(1) %5, ptr noundef nonnull align 8 dereferenceable(8) %6)
  br i1 %23, label %24, label %46

24:                                               ; preds = %22
  %25 = call noundef nonnull align 8 dereferenceable(148) ptr @_ZNK4llvm16pointee_iteratorIPKPNS_9MCSectionES1_EdeEv(ptr noundef nonnull align 8 dereferenceable(8) %5)
  store ptr %25, ptr %7, align 8
  %26 = load ptr, ptr %7, align 8
  store ptr %26, ptr %8, align 8
  %27 = load ptr, ptr %8, align 8
  %28 = call ptr @_ZNK4llvm9MCSection5beginEv(ptr noundef nonnull align 8 dereferenceable(148) %27)
  %29 = getelementptr inbounds nuw %"struct.llvm::MCSection::iterator", ptr %9, i32 0, i32 0
  store ptr %28, ptr %29, align 8
  %30 = load ptr, ptr %8, align 8
  %31 = call ptr @_ZNK4llvm9MCSection3endEv(ptr noundef nonnull align 8 dereferenceable(148) %30)
  %32 = getelementptr inbounds nuw %"struct.llvm::MCSection::iterator", ptr %10, i32 0, i32 0
  store ptr %31, ptr %32, align 8
  br label %33

33:                                               ; preds = %41, %24
  %34 = call noundef zeroext i1 @_ZNK4llvm9MCSection8iteratorneERKS1_(ptr noundef nonnull align 8 dereferenceable(8) %9, ptr noundef nonnull align 8 dereferenceable(8) %10)
  br i1 %34, label %35, label %43

35:                                               ; preds = %33
  %36 = call noundef nonnull align 8 dereferenceable(30) ptr @_ZNK4llvm9MCSection8iteratordeEv(ptr noundef nonnull align 8 dereferenceable(8) %9)
  store ptr %36, ptr %11, align 8
  %37 = load ptr, ptr %11, align 8
  %38 = call noundef zeroext i1 @_ZN4llvm11MCAssembler13relaxFragmentERNS_10MCFragmentE(ptr noundef nonnull align 8 dereferenceable(372) %12, ptr noundef nonnull align 8 dereferenceable(30) %37)
  br i1 %38, label %39, label %40

39:                                               ; preds = %35
  store i8 1, ptr %3, align 1
  br label %40

40:                                               ; preds = %39, %35
  br label %41

41:                                               ; preds = %40
  %42 = call noundef nonnull align 8 dereferenceable(8) ptr @_ZN4llvm9MCSection8iteratorppEv(ptr noundef nonnull align 8 dereferenceable(8) %9)
  br label %33

43:                                               ; preds = %33
  br label %44

44:                                               ; preds = %43
  %45 = call noundef nonnull align 8 dereferenceable(8) ptr @_ZN4llvm21iterator_adaptor_baseINS_16pointee_iteratorIPKPNS_9MCSectionES2_EES5_St26random_access_iterator_tagS2_lS3_RS2_EppEv(ptr noundef nonnull align 8 dereferenceable(8) %5)
  br label %22

46:                                               ; preds = %22
  %47 = load i8, ptr %3, align 1
  %48 = trunc i8 %47 to i1
  ret i1 %48
}