; Function Attrs: mustprogress nounwind uwtable
define dso_local noundef zeroext i1 @_ZN4llvm11MCAssembler10layoutOnceEv(ptr noundef nonnull align 8 dereferenceable(372) %0) local_unnamed_addr #0 align 2 {
  %2 = getelementptr inbounds nuw i8, ptr %0, i64 40
  %3 = load ptr, ptr %2, align 8
  %4 = tail call noundef i64 @_ZNK4llvm15SmallVectorBaseIjE4sizeEv(ptr noundef nonnull align 8 dereferenceable(16) %2) #11
  %5 = getelementptr inbounds ptr, ptr %3, i64 %4
  %.not19 = icmp eq i64 %4, 0
  br i1 %.not19, label %._crit_edge24, label %.lr.ph23

.lr.ph23:                                         ; preds = %1, %._crit_edge
  %.021 = phi i1 [ %.1.lcssa, %._crit_edge ], [ false, %1 ]
  %.sroa.011.020 = phi ptr [ %10, %._crit_edge ], [ %3, %1 ]
  %6 = load ptr, ptr %.sroa.011.020, align 8
  %7 = getelementptr inbounds nuw i8, ptr %6, i64 8
  %8 = load ptr, ptr %7, align 8
  %.sroa.07.015 = load ptr, ptr %8, align 8
  %.not1416 = icmp eq ptr %.sroa.07.015, null
  br i1 %.not1416, label %._crit_edge, label %.lr.ph

.lr.ph:                                           ; preds = %.lr.ph23, %.lr.ph
  %.sroa.07.018 = phi ptr [ %.sroa.07.0, %.lr.ph ], [ %.sroa.07.015, %.lr.ph23 ]
  %.117 = phi i1 [ %spec.select, %.lr.ph ], [ %.021, %.lr.ph23 ]
  %9 = tail call noundef zeroext i1 @_ZN4llvm11MCAssembler13relaxFragmentERNS_10MCFragmentE(ptr noundef nonnull align 8 dereferenceable(372) %0, ptr noundef nonnull align 8 dereferenceable(30) %.sroa.07.018)
  %spec.select = select i1 %9, i1 true, i1 %.117
  %.sroa.07.0 = load ptr, ptr %.sroa.07.018, align 8
  %.not14 = icmp eq ptr %.sroa.07.0, null
  br i1 %.not14, label %._crit_edge, label %.lr.ph

._crit_edge:                                      ; preds = %.lr.ph, %.lr.ph23
  %.1.lcssa = phi i1 [ %.021, %.lr.ph23 ], [ %spec.select, %.lr.ph ]
  %10 = getelementptr inbounds i8, ptr %.sroa.011.020, i64 8
  %.not = icmp eq ptr %10, %5
  br i1 %.not, label %._crit_edge24, label %.lr.ph23

._crit_edge24:                                    ; preds = %._crit_edge, %1
  %.0.lcssa = phi i1 [ false, %1 ], [ %.1.lcssa, %._crit_edge ]
  ret i1 %.0.lcssa
}